target datalayout = "e-m:e-p270:32:32-p271:32:32-p272:64:64-i64:64-i128:128-f80:128-n8:16:32:64-S128"
target triple = "x86_64-pc-linux-gnu"

%struct.jv = type { i8, i8, i16, i32, %union.anon }
%union.anon = type { ptr }
%struct.jv_refcnt = type { i32 }
%struct.jvp_object = type { %struct.jv_refcnt, i32, [0 x %struct.object_slot] }
%struct.object_slot = type { i32, i32, %struct.jv, %struct.jv }

; Function Attrs: nounwind uwtable
define internal void @jvp_refcnt_inc(ptr noundef %0) #0 {
  %2 = alloca ptr, align 8
  store ptr %0, ptr %2, align 8, !tbaa !83
  %3 = load ptr, ptr %2, align 8, !tbaa !83
  %4 = getelementptr inbounds nuw %struct.jv_refcnt, ptr %3, i32 0, i32 0
  %5 = load i32, ptr %4, align 4, !tbaa !68
  %6 = add nsw i32 %5, 1
  store i32 %6, ptr %4, align 4, !tbaa !68
  ret void
}

; Function Attrs: nounwind uwtable
define internal ptr @jvp_object_ptr(i64 %0, ptr %1) #0 {
  %3 = alloca %struct.jv, align 8
  %4 = getelementptr inbounds nuw { i64, ptr }, ptr %3, i32 0, i32 0
  store i64 %0, ptr %4, align 8
  %5 = getelementptr inbounds nuw { i64, ptr }, ptr %3, i32 0, i32 1
  store ptr %1, ptr %5, align 8
  %6 = getelementptr inbounds nuw %struct.jv, ptr %3, i32 0, i32 4
  %7 = load ptr, ptr %6, align 8, !tbaa !12
  ret ptr %7
}

; Function Attrs: nounwind uwtable
define dso_local i32 @jv_get_kind(i64 %0, ptr %1) #0 {
  %3 = alloca %struct.jv, align 8
  %4 = getelementptr inbounds nuw { i64, ptr }, ptr %3, i32 0, i32 0
  store i64 %0, ptr %4, align 8
  %5 = getelementptr inbounds nuw { i64, ptr }, ptr %3, i32 0, i32 1
  store ptr %1, ptr %5, align 8
  %6 = getelementptr inbounds nuw %struct.jv, ptr %3, i32 0, i32 0
  %7 = load i8, ptr %6, align 8, !tbaa !4
  %8 = zext i8 %7 to i32
  %9 = and i32 %8, 15
  ret i32 %9
}

; Function Attrs: nounwind uwtable
define internal i32 @jvp_object_size(i64 %0, ptr %1) #0 {
  %3 = alloca %struct.jv, align 8
  %4 = getelementptr inbounds nuw { i64, ptr }, ptr %3, i32 0, i32 0
  store i64 %0, ptr %4, align 8
  %5 = getelementptr inbounds nuw { i64, ptr }, ptr %3, i32 0, i32 1
  store ptr %1, ptr %5, align 8
  %6 = getelementptr inbounds nuw %struct.jv, ptr %3, i32 0, i32 3
  %7 = load i32, ptr %6, align 4, !tbaa !19
  ret i32 %7
}

; Function Attrs: nounwind uwtable
define dso_local { i64, ptr } @jv_copy(i64 %0, ptr %1) #0 {
  %3 = alloca %struct.jv, align 8
  %4 = alloca %struct.jv, align 8
  %5 = getelementptr inbounds nuw { i64, ptr }, ptr %4, i32 0, i32 0
  store i64 %0, ptr %5, align 8
  %6 = getelementptr inbounds nuw { i64, ptr }, ptr %4, i32 0, i32 1
  store ptr %1, ptr %6, align 8
  %7 = getelementptr inbounds nuw %struct.jv, ptr %4, i32 0, i32 0
  %8 = load i8, ptr %7, align 8, !tbaa !4
  %9 = zext i8 %8 to i32
  %10 = and i32 %9, 128
  %11 = icmp ne i32 %10, 0
  br i1 %11, label %12, label %15

12:                                               ; preds = %2
  %13 = getelementptr inbounds nuw %struct.jv, ptr %4, i32 0, i32 4
  %14 = load ptr, ptr %13, align 8, !tbaa !12
  call void @jvp_refcnt_inc(ptr noundef %14)
  br label %15

15:                                               ; preds = %12, %2
  call void @llvm.memcpy.p0.p0.i64(ptr align 8 %3, ptr align 8 %4, i64 16, i1 false), !tbaa.struct !11
  %16 = load { i64, ptr }, ptr %3, align 8
  ret { i64, ptr } %16
}

; Function Attrs: nounwind uwtable
define internal ptr @jvp_object_get_slot(i64 %0, ptr %1, i32 noundef %2) #0 {
  %4 = alloca ptr, align 8
  %5 = alloca %struct.jv, align 8
  %6 = alloca i32, align 4
  %7 = getelementptr inbounds nuw { i64, ptr }, ptr %5, i32 0, i32 0
  store i64 %0, ptr %7, align 8
  %8 = getelementptr inbounds nuw { i64, ptr }, ptr %5, i32 0, i32 1
  store ptr %1, ptr %8, align 8
  store i32 %2, ptr %6, align 4, !tbaa !10
  %9 = load i32, ptr %6, align 4, !tbaa !10
  %10 = icmp eq i32 %9, -1
  br i1 %10, label %11, label %12

11:                                               ; preds = %3
  store ptr null, ptr %4, align 8
  br label %22

12:                                               ; preds = %3
  %13 = getelementptr inbounds nuw { i64, ptr }, ptr %5, i32 0, i32 0
  %14 = load i64, ptr %13, align 8
  %15 = getelementptr inbounds nuw { i64, ptr }, ptr %5, i32 0, i32 1
  %16 = load ptr, ptr %15, align 8
  %17 = call ptr @jvp_object_ptr(i64 %14, ptr %16)
  %18 = getelementptr inbounds nuw %struct.jvp_object, ptr %17, i32 0, i32 2
  %19 = load i32, ptr %6, align 4, !tbaa !10
  %20 = sext i32 %19 to i64
  %21 = getelementptr inbounds [0 x %struct.object_slot], ptr %18, i64 0, i64 %20
  store ptr %21, ptr %4, align 8
  br label %22

22:                                               ; preds = %12, %11
  %23 = load ptr, ptr %4, align 8
  ret ptr %23
}

; Function Attrs: nounwind uwtable
define dso_local i32 @jv_object_iter_next(i64 %0, ptr %1, i32 noundef %2) #0 {
  %4 = alloca i32, align 4
  %5 = alloca %struct.jv, align 8
  %6 = alloca i32, align 4
  %7 = alloca ptr, align 8
  %8 = alloca i32, align 4
  %9 = getelementptr inbounds nuw { i64, ptr }, ptr %5, i32 0, i32 0
  store i64 %0, ptr %9, align 8
  %10 = getelementptr inbounds nuw { i64, ptr }, ptr %5, i32 0, i32 1
  store ptr %1, ptr %10, align 8
  store i32 %2, ptr %6, align 4, !tbaa !10
  call void @llvm.lifetime.start.p0(i64 8, ptr %7) #11
  br label %11

11:                                               ; preds = %29, %3
  %12 = load i32, ptr %6, align 4, !tbaa !10
  %13 = add nsw i32 %12, 1
  store i32 %13, ptr %6, align 4, !tbaa !10
  %14 = load i32, ptr %6, align 4, !tbaa !10
  %15 = getelementptr inbounds nuw { i64, ptr }, ptr %5, i32 0, i32 0
  %16 = load i64, ptr %15, align 8
  %17 = getelementptr inbounds nuw { i64, ptr }, ptr %5, i32 0, i32 1
  %18 = load ptr, ptr %17, align 8
  %19 = call i32 @jvp_object_size(i64 %16, ptr %18)
  %20 = icmp sge i32 %14, %19
  br i1 %20, label %21, label %22

21:                                               ; preds = %11
  store i32 -2, ptr %4, align 4
  store i32 1, ptr %8, align 4
  br label %40

22:                                               ; preds = %11
  %23 = load i32, ptr %6, align 4, !tbaa !10
  %24 = getelementptr inbounds nuw { i64, ptr }, ptr %5, i32 0, i32 0
  %25 = load i64, ptr %24, align 8
  %26 = getelementptr inbounds nuw { i64, ptr }, ptr %5, i32 0, i32 1
  %27 = load ptr, ptr %26, align 8
  %28 = call ptr @jvp_object_get_slot(i64 %25, ptr %27, i32 noundef %23)
  store ptr %28, ptr %7, align 8, !tbaa !74
  br label %29

29:                                               ; preds = %22
  %30 = load ptr, ptr %7, align 8, !tbaa !74
  %31 = getelementptr inbounds nuw %struct.object_slot, ptr %30, i32 0, i32 2
  %32 = getelementptr inbounds nuw { i64, ptr }, ptr %31, i32 0, i32 0
  %33 = load i64, ptr %32, align 8
  %34 = getelementptr inbounds nuw { i64, ptr }, ptr %31, i32 0, i32 1
  %35 = load ptr, ptr %34, align 8
  %36 = call i32 @jv_get_kind(i64 %33, ptr %35)
  %37 = icmp eq i32 %36, 1
  br i1 %37, label %11, label %38, !llvm.loop !80

38:                                               ; preds = %29
  %39 = load i32, ptr %6, align 4, !tbaa !10
  store i32 %39, ptr %4, align 4
  store i32 1, ptr %8, align 4
  br label %40

40:                                               ; preds = %38, %21
  call void @llvm.lifetime.end.p0(i64 8, ptr %7) #11
  %41 = load i32, ptr %4, align 4
  ret i32 %41
}

; Function Attrs: nounwind uwtable
define dso_local { i64, ptr } @jv_object_iter_value(i64 %0, ptr %1, i32 noundef %2) #0 {
  %4 = alloca %struct.jv, align 8
  %5 = alloca %struct.jv, align 8
  %6 = alloca i32, align 4
  %7 = getelementptr inbounds nuw { i64, ptr }, ptr %5, i32 0, i32 0
  store i64 %0, ptr %7, align 8
  %8 = getelementptr inbounds nuw { i64, ptr }, ptr %5, i32 0, i32 1
  store ptr %1, ptr %8, align 8
  store i32 %2, ptr %6, align 4, !tbaa !10
  %9 = load i32, ptr %6, align 4, !tbaa !10
  %10 = getelementptr inbounds nuw { i64, ptr }, ptr %5, i32 0, i32 0
  %11 = load i64, ptr %10, align 8
  %12 = getelementptr inbounds nuw { i64, ptr }, ptr %5, i32 0, i32 1
  %13 = load ptr, ptr %12, align 8
  %14 = call ptr @jvp_object_get_slot(i64 %11, ptr %13, i32 noundef %9)
  %15 = getelementptr inbounds nuw %struct.object_slot, ptr %14, i32 0, i32 3
  %16 = getelementptr inbounds nuw { i64, ptr }, ptr %15, i32 0, i32 0
  %17 = load i64, ptr %16, align 8
  %18 = getelementptr inbounds nuw { i64, ptr }, ptr %15, i32 0, i32 1
  %19 = load ptr, ptr %18, align 8
  %20 = call { i64, ptr } @jv_copy(i64 %17, ptr %19)
  %21 = getelementptr inbounds nuw { i64, ptr }, ptr %4, i32 0, i32 0
  %22 = extractvalue { i64, ptr } %20, 0
  store i64 %22, ptr %21, align 8
  %23 = getelementptr inbounds nuw { i64, ptr }, ptr %4, i32 0, i32 1
  %24 = extractvalue { i64, ptr } %20, 1
  store ptr %24, ptr %23, align 8
  %25 = load { i64, ptr }, ptr %4, align 8
  ret { i64, ptr } %25
}

; Function Attrs: nounwind uwtable
define dso_local { i64, ptr } @jv_object_iter_key(i64 %0, ptr %1, i32 noundef %2) #0 {
  %4 = alloca %struct.jv, align 8
  %5 = alloca %struct.jv, align 8
  %6 = alloca i32, align 4
  %7 = alloca %struct.jv, align 8
  %8 = getelementptr inbounds nuw { i64, ptr }, ptr %5, i32 0, i32 0
  store i64 %0, ptr %8, align 8
  %9 = getelementptr inbounds nuw { i64, ptr }, ptr %5, i32 0, i32 1
  store ptr %1, ptr %9, align 8
  store i32 %2, ptr %6, align 4, !tbaa !10
  call void @llvm.lifetime.start.p0(i64 16, ptr %7) #11
  %10 = load i32, ptr %6, align 4, !tbaa !10
  %11 = getelementptr inbounds nuw { i64, ptr }, ptr %5, i32 0, i32 0
  %12 = load i64, ptr %11, align 8
  %13 = getelementptr inbounds nuw { i64, ptr }, ptr %5, i32 0, i32 1
  %14 = load ptr, ptr %13, align 8
  %15 = call ptr @jvp_object_get_slot(i64 %12, ptr %14, i32 noundef %10)
  %16 = getelementptr inbounds nuw %struct.object_slot, ptr %15, i32 0, i32 2
  call void @llvm.memcpy.p0.p0.i64(ptr align 8 %7, ptr align 8 %16, i64 16, i1 false), !tbaa.struct !11
  %17 = getelementptr inbounds nuw { i64, ptr }, ptr %7, i32 0, i32 0
  %18 = load i64, ptr %17, align 8
  %19 = getelementptr inbounds nuw { i64, ptr }, ptr %7, i32 0, i32 1
  %20 = load ptr, ptr %19, align 8
  %21 = call { i64, ptr } @jv_copy(i64 %18, ptr %20)
  %22 = getelementptr inbounds nuw { i64, ptr }, ptr %4, i32 0, i32 0
  %23 = extractvalue { i64, ptr } %21, 0
  store i64 %23, ptr %22, align 8
  %24 = getelementptr inbounds nuw { i64, ptr }, ptr %4, i32 0, i32 1
  %25 = extractvalue { i64, ptr } %21, 1
  store ptr %25, ptr %24, align 8
  call void @llvm.lifetime.end.p0(i64 16, ptr %7) #11
  %26 = load { i64, ptr }, ptr %4, align 8
  ret { i64, ptr } %26
}

; Function Attrs: nounwind uwtable
define dso_local i32 @jv_object_iter_valid(i64 %0, ptr %1, i32 noundef %2) #0 {
  %4 = alloca %struct.jv, align 8
  %5 = alloca i32, align 4
  %6 = getelementptr inbounds nuw { i64, ptr }, ptr %4, i32 0, i32 0
  store i64 %0, ptr %6, align 8
  %7 = getelementptr inbounds nuw { i64, ptr }, ptr %4, i32 0, i32 1
  store ptr %1, ptr %7, align 8
  store i32 %2, ptr %5, align 4, !tbaa !10
  %8 = load i32, ptr %5, align 4, !tbaa !10
  %9 = icmp ne i32 %8, -2
  %10 = zext i1 %9 to i32
  ret i32 %10
}

; Function Attrs: nounwind uwtable
define dso_local i32 @jv_object_iter(i64 %0, ptr %1) #0 {
  %3 = alloca %struct.jv, align 8
  %4 = getelementptr inbounds nuw { i64, ptr }, ptr %3, i32 0, i32 0
  store i64 %0, ptr %4, align 8
  %5 = getelementptr inbounds nuw { i64, ptr }, ptr %3, i32 0, i32 1
  store ptr %1, ptr %5, align 8
  %6 = getelementptr inbounds nuw { i64, ptr }, ptr %3, i32 0, i32 0
  %7 = load i64, ptr %6, align 8
  %8 = getelementptr inbounds nuw { i64, ptr }, ptr %3, i32 0, i32 1
  %9 = load ptr, ptr %8, align 8
  %10 = call i32 @jv_object_iter_next(i64 %7, ptr %9, i32 noundef -1)
  ret i32 %10
}

; Function Attrs: nounwind uwtable
define dso_local { i64, ptr } @jv_object_merge(i64 %0, ptr %1, i64 %2, ptr %3) #0 {
  %5 = alloca %struct.jv, align 8
  %6 = alloca %struct.jv, align 8
  %7 = alloca %struct.jv, align 8
  %8 = alloca i32, align 4
  %9 = alloca i32, align 4
  %10 = alloca i32, align 4
  %11 = alloca %struct.jv, align 8
  %12 = alloca %struct.jv, align 8
  %13 = alloca %struct.jv, align 8
  %14 = alloca i1, align 1
  %15 = alloca %struct.jv, align 8
  %16 = alloca i1, align 1
  %17 = alloca %struct.jv, align 8
  %18 = getelementptr inbounds nuw { i64, ptr }, ptr %6, i32 0, i32 0
  store i64 %0, ptr %18, align 8
  %19 = getelementptr inbounds nuw { i64, ptr }, ptr %6, i32 0, i32 1
  store ptr %1, ptr %19, align 8
  %20 = getelementptr inbounds nuw { i64, ptr }, ptr %7, i32 0, i32 0
  store i64 %2, ptr %20, align 8
  %21 = getelementptr inbounds nuw { i64, ptr }, ptr %7, i32 0, i32 1
  store ptr %3, ptr %21, align 8
  call void @llvm.lifetime.start.p0(i64 4, ptr %8) #11
  %22 = getelementptr inbounds nuw { i64, ptr }, ptr %7, i32 0, i32 0
  %23 = load i64, ptr %22, align 8
  %24 = getelementptr inbounds nuw { i64, ptr }, ptr %7, i32 0, i32 1
  %25 = load ptr, ptr %24, align 8
  %26 = call i32 @jv_object_iter(i64 %23, ptr %25)
  store i32 %26, ptr %8, align 4, !tbaa !10
  call void @llvm.lifetime.start.p0(i64 4, ptr %9) #11
  store i32 1, ptr %9, align 4, !tbaa !10
  br label %27

27:                                               ; preds = %92, %4
  %28 = load i32, ptr %9, align 4, !tbaa !10
  %29 = icmp ne i32 %28, 0
  br i1 %29, label %31, label %30

30:                                               ; preds = %27
  store i32 2, ptr %10, align 4
  call void @llvm.lifetime.end.p0(i64 4, ptr %9) #11
  call void @llvm.lifetime.end.p0(i64 4, ptr %8) #11
  br label %93

31:                                               ; preds = %27
  call void @llvm.lifetime.start.p0(i64 16, ptr %11) #11
  call void @llvm.lifetime.start.p0(i64 16, ptr %12) #11
  br label %32

32:                                               ; preds = %84, %31
  %33 = load i32, ptr %8, align 4, !tbaa !10
  %34 = getelementptr inbounds nuw { i64, ptr }, ptr %7, i32 0, i32 0
  %35 = load i64, ptr %34, align 8
  %36 = getelementptr inbounds nuw { i64, ptr }, ptr %7, i32 0, i32 1
  %37 = load ptr, ptr %36, align 8
  %38 = call i32 @jv_object_iter_valid(i64 %35, ptr %37, i32 noundef %33)
  %39 = icmp ne i32 %38, 0
  store i1 false, ptr %14, align 1
  store i1 false, ptr %16, align 1
  br i1 %39, label %40, label %61

40:                                               ; preds = %32
  call void @llvm.lifetime.start.p0(i64 16, ptr %13) #11
  store i1 true, ptr %14, align 1
  %41 = load i32, ptr %8, align 4, !tbaa !10
  %42 = getelementptr inbounds nuw { i64, ptr }, ptr %7, i32 0, i32 0
  %43 = load i64, ptr %42, align 8
  %44 = getelementptr inbounds nuw { i64, ptr }, ptr %7, i32 0, i32 1
  %45 = load ptr, ptr %44, align 8
  %46 = call { i64, ptr } @jv_object_iter_key(i64 %43, ptr %45, i32 noundef %41)
  %47 = getelementptr inbounds nuw { i64, ptr }, ptr %13, i32 0, i32 0
  %48 = extractvalue { i64, ptr } %46, 0
  store i64 %48, ptr %47, align 8
  %49 = getelementptr inbounds nuw { i64, ptr }, ptr %13, i32 0, i32 1
  %50 = extractvalue { i64, ptr } %46, 1
  store ptr %50, ptr %49, align 8
  call void @llvm.memcpy.p0.p0.i64(ptr align 8 %11, ptr align 8 %13, i64 16, i1 false), !tbaa.struct !11
  call void @llvm.lifetime.end.p0(i64 16, ptr %13) #11
  call void @llvm.lifetime.start.p0(i64 16, ptr %15) #11
  store i1 true, ptr %16, align 1
  %51 = load i32, ptr %8, align 4, !tbaa !10
  %52 = getelementptr inbounds nuw { i64, ptr }, ptr %7, i32 0, i32 0
  %53 = load i64, ptr %52, align 8
  %54 = getelementptr inbounds nuw { i64, ptr }, ptr %7, i32 0, i32 1
  %55 = load ptr, ptr %54, align 8
  %56 = call { i64, ptr } @jv_object_iter_value(i64 %53, ptr %55, i32 noundef %51)
  %57 = getelementptr inbounds nuw { i64, ptr }, ptr %15, i32 0, i32 0
  %58 = extractvalue { i64, ptr } %56, 0
  store i64 %58, ptr %57, align 8
  %59 = getelementptr inbounds nuw { i64, ptr }, ptr %15, i32 0, i32 1
  %60 = extractvalue { i64, ptr } %56, 1
  store ptr %60, ptr %59, align 8
  call void @llvm.memcpy.p0.p0.i64(ptr align 8 %12, ptr align 8 %15, i64 16, i1 false), !tbaa.struct !11
  call void @llvm.lifetime.end.p0(i64 16, ptr %15) #11
  br label %62

61:                                               ; preds = %32
  br label %62

62:                                               ; preds = %61, %40
  %63 = phi i32 [ 1, %40 ], [ 0, %61 ]
  %64 = icmp ne i32 %63, 0
  br i1 %64, label %66, label %65

65:                                               ; preds = %62
  store i32 5, ptr %10, align 4
  call void @llvm.lifetime.end.p0(i64 16, ptr %12) #11
  call void @llvm.lifetime.end.p0(i64 16, ptr %11) #11
  br label %91

66:                                               ; preds = %62
  call void @llvm.lifetime.start.p0(i64 16, ptr %17) #11
  %67 = getelementptr inbounds nuw { i64, ptr }, ptr %6, i32 0, i32 0
  %68 = load i64, ptr %67, align 8
  %69 = getelementptr inbounds nuw { i64, ptr }, ptr %6, i32 0, i32 1
  %70 = load ptr, ptr %69, align 8
  %71 = getelementptr inbounds nuw { i64, ptr }, ptr %11, i32 0, i32 0
  %72 = load i64, ptr %71, align 8
  %73 = getelementptr inbounds nuw { i64, ptr }, ptr %11, i32 0, i32 1
  %74 = load ptr, ptr %73, align 8
  %75 = getelementptr inbounds nuw { i64, ptr }, ptr %12, i32 0, i32 0
  %76 = load i64, ptr %75, align 8
  %77 = getelementptr inbounds nuw { i64, ptr }, ptr %12, i32 0, i32 1
  %78 = load ptr, ptr %77, align 8
  %79 = call { i64, ptr } @jv_object_set(i64 %68, ptr %70, i64 %72, ptr %74, i64 %76, ptr %78)
  %80 = getelementptr inbounds nuw { i64, ptr }, ptr %17, i32 0, i32 0
  %81 = extractvalue { i64, ptr } %79, 0
  store i64 %81, ptr %80, align 8
  %82 = getelementptr inbounds nuw { i64, ptr }, ptr %17, i32 0, i32 1
  %83 = extractvalue { i64, ptr } %79, 1
  store ptr %83, ptr %82, align 8
  call void @llvm.memcpy.p0.p0.i64(ptr align 8 %6, ptr align 8 %17, i64 16, i1 false), !tbaa.struct !11
  call void @llvm.lifetime.end.p0(i64 16, ptr %17) #11
  br label %84

84:                                               ; preds = %66
  %85 = load i32, ptr %8, align 4, !tbaa !10
  %86 = getelementptr inbounds nuw { i64, ptr }, ptr %7, i32 0, i32 0
  %87 = load i64, ptr %86, align 8
  %88 = getelementptr inbounds nuw { i64, ptr }, ptr %7, i32 0, i32 1
  %89 = load ptr, ptr %88, align 8
  %90 = call i32 @jv_object_iter_next(i64 %87, ptr %89, i32 noundef %85)
  store i32 %90, ptr %8, align 4, !tbaa !10
  br label %32, !llvm.loop !78

91:                                               ; preds = %65
  br label %92

92:                                               ; preds = %91
  store i32 0, ptr %9, align 4, !tbaa !10
  br label %27, !llvm.loop !79

93:                                               ; preds = %30
  %94 = getelementptr inbounds nuw { i64, ptr }, ptr %7, i32 0, i32 0
  %95 = load i64, ptr %94, align 8
  %96 = getelementptr inbounds nuw { i64, ptr }, ptr %7, i32 0, i32 1
  %97 = load ptr, ptr %96, align 8
  call void @jv_free(i64 %95, ptr %97)
  call void @llvm.memcpy.p0.p0.i64(ptr align 8 %5, ptr align 8 %6, i64 16, i1 false), !tbaa.struct !11
  %98 = load { i64, ptr }, ptr %5, align 8
  ret { i64, ptr } %98
}