; Function Attrs: nounwind uwtable
define dso_local { i64, ptr } @jv_object_merge(i64 %0, ptr %1, i64 %2, ptr %3) local_unnamed_addr #2 {
  %5 = ashr i64 %2, 32
  %smax.i = tail call i64 @llvm.smax.i64(i64 %5, i64 0)
  %6 = add nsw i64 %smax.i, -1
  %7 = getelementptr i8, ptr %3, i64 16
  br label %8

8:                                                ; preds = %9, %4
  %indvars.iv.i.i = phi i64 [ %indvars.iv.next.i.i, %9 ], [ -1, %4 ]
  %exitcond.not.i = icmp eq i64 %indvars.iv.i.i, %6
  br i1 %exitcond.not.i, label %.loopexit, label %9

9:                                                ; preds = %8
  %indvars.iv.next.i.i = add nsw i64 %indvars.iv.i.i, 1
  %.idx.i = mul nuw nsw i64 %indvars.iv.next.i.i, 40
  %10 = getelementptr i8, ptr %7, i64 %.idx.i
  %11 = load i64, ptr %10, align 8
  %12 = and i64 %11, 15
  %13 = icmp eq i64 %12, 1
  br i1 %13, label %8, label %jv_object_iter.exit, !llvm.loop !64

jv_object_iter.exit:                              ; preds = %9
  %14 = getelementptr inbounds nuw i8, ptr %3, i64 8
  %.not4446 = icmp eq i64 %indvars.iv.next.i.i, -2
  br i1 %.not4446, label %.loopexit, label %.lr.ph

.loopexit:                                        ; preds = %8, %jv_object_iter_next.exit, %36, %jv_object_iter.exit
  %.sroa.024.1.lcssa = phi i64 [ %0, %jv_object_iter.exit ], [ %34, %36 ], [ %34, %jv_object_iter_next.exit ], [ %0, %8 ]
  %.sroa.425.1.lcssa = phi ptr [ %1, %jv_object_iter.exit ], [ %35, %36 ], [ %35, %jv_object_iter_next.exit ], [ %1, %8 ]
  tail call void @jv_free(i64 %2, ptr %3)
  %.fca.0.insert = insertvalue { i64, ptr } poison, i64 %.sroa.024.1.lcssa, 0
  %.fca.1.insert = insertvalue { i64, ptr } %.fca.0.insert, ptr %.sroa.425.1.lcssa, 1
  ret { i64, ptr } %.fca.1.insert

.lr.ph:                                           ; preds = %jv_object_iter.exit, %jv_object_iter_next.exit
  %.sroa.425.149 = phi ptr [ %35, %jv_object_iter_next.exit ], [ %1, %jv_object_iter.exit ]
  %.sroa.024.148 = phi i64 [ %34, %jv_object_iter_next.exit ], [ %0, %jv_object_iter.exit ]
  %.147.in = phi i64 [ %indvars.iv.next.i, %jv_object_iter_next.exit ], [ %indvars.iv.next.i.i, %jv_object_iter.exit ]
  %15 = and i64 %.147.in, 4294967295
  %16 = icmp eq i64 %15, 4294967295
  %sext = shl i64 %.147.in, 32
  %17 = ashr exact i64 %sext, 32
  %18 = getelementptr inbounds [0 x %struct.object_slot], ptr %14, i64 0, i64 %17
  %.0.i.i30 = select i1 %16, ptr null, ptr %18
  %19 = getelementptr inbounds nuw i8, ptr %.0.i.i30, i64 8
  %.sroa.0.0.copyload.i = load i64, ptr %19, align 8
  %.sroa.4.0..sroa_idx.i = getelementptr inbounds nuw i8, ptr %.0.i.i30, i64 16
  %.sroa.4.0.copyload.i = load ptr, ptr %.sroa.4.0..sroa_idx.i, align 8, !tbaa !8
  %20 = and i64 %.sroa.0.0.copyload.i, 128
  %.not.i.i = icmp eq i64 %20, 0
  br i1 %.not.i.i, label %jv_object_iter_key.exit, label %21

21:                                               ; preds = %.lr.ph
  %22 = load i32, ptr %.sroa.4.0.copyload.i, align 4, !tbaa !9
  %23 = add nsw i32 %22, 1
  store i32 %23, ptr %.sroa.4.0.copyload.i, align 4, !tbaa !9
  br label %jv_object_iter_key.exit

jv_object_iter_key.exit:                          ; preds = %.lr.ph, %21
  %24 = getelementptr inbounds nuw i8, ptr %.0.i.i30, i64 24
  %25 = load i64, ptr %24, align 8
  %26 = getelementptr inbounds nuw i8, ptr %.0.i.i30, i64 32
  %27 = load ptr, ptr %26, align 8
  %28 = and i64 %25, 128
  %.not.i.i32 = icmp eq i64 %28, 0
  br i1 %.not.i.i32, label %32, label %29

29:                                               ; preds = %jv_object_iter_key.exit
  %30 = load i32, ptr %27, align 4, !tbaa !9
  %31 = add nsw i32 %30, 1
  store i32 %31, ptr %27, align 4, !tbaa !9
  br label %32

32:                                               ; preds = %29, %jv_object_iter_key.exit
  %33 = tail call { i64, ptr } @jv_object_set(i64 %.sroa.024.148, ptr %.sroa.425.149, i64 %.sroa.0.0.copyload.i, ptr %.sroa.4.0.copyload.i, i64 %25, ptr %27)
  %34 = extractvalue { i64, ptr } %33, 0
  %35 = extractvalue { i64, ptr } %33, 1
  br label %36

36:                                               ; preds = %37, %32
  %indvars.iv.i = phi i64 [ %indvars.iv.next.i, %37 ], [ %17, %32 ]
  %indvars.iv.next.i = add nsw i64 %indvars.iv.i, 1
  %.not.i = icmp slt i64 %indvars.iv.next.i, %5
  br i1 %.not.i, label %37, label %.loopexit

37:                                               ; preds = %36
  %38 = icmp eq i64 %indvars.iv.next.i, -1
  %39 = getelementptr inbounds [0 x %struct.object_slot], ptr %14, i64 0, i64 %indvars.iv.next.i
  %.0.i.i35 = select i1 %38, ptr null, ptr %39
  %40 = getelementptr inbounds nuw i8, ptr %.0.i.i35, i64 8
  %41 = load i64, ptr %40, align 8
  %42 = and i64 %41, 15
  %43 = icmp eq i64 %42, 1
  br i1 %43, label %36, label %jv_object_iter_next.exit, !llvm.loop !64

jv_object_iter_next.exit:                         ; preds = %37
  %.not44 = icmp eq i64 %indvars.iv.next.i, -2
  br i1 %.not44, label %.loopexit, label %.lr.ph, !llvm.loop !65
}